(lp0
ccopy_reg
_reconstructor
p1
(citems
Treasure
p2
c__builtin__
object
p3
Ntp4
Rp5
(dp6
S'description'
p7
S"It's great!"
p8
sS'title'
p9
S'Greatsword'
p10
sS'armor'
p11
I0
sS'item_type'
p12
S'weapon'
p13
sS'attack'
p14
I2
sS'treasures'
p15
(lp16
sS'buff'
p17
I0
sbag1
(g2
g3
Ntp18
Rp19
(dp20
g7
S"Hope you're immunized!"
p21
sg9
S'Rusty Helm'
p22
sg11
I1
sg12
S'hat'
p23
sg14
I0
sg15
(lp24
g1
(g2
g3
Ntp25
Rp26
(dp27
g7
S"It's great!"
p28
sg9
S'Greatsword'
p29
sg11
I0
sg12
S'weapon'
p30
sg14
I2
sg15
(lp31
sg17
I0
sbasg17
I0
sbag1
(g2
g3
Ntp32
Rp33
(dp34
g7
S'How generic!'
p35
sg9
S'Chainmail'
p36
sg11
I2
sg12
S'shirt'
p37
sg14
I0
sg17
I0
sba.